(dp0
V1.1.3.3
p1
(lp2
Vmox
p3
asV1.7.99.4
p4
(lp5
Vno3r1bpp
p6
aVno3r1pp
p7
aVno3r2bpp
p8
asV2.7.1.11
p9
(lp10
Vpfk
p11
aVpfk_2
p12
aVpfk_3
p13
asV2.7.1.12
p14
(lp15
Vgnk
p16
asV2.7.1.15
p17
(lp18
Vrbk
p19
asV2.7.1.17
p20
(lp21
Vxylk
p22
asV2.7.1.16
p23
(lp24
Vrbk_l1
p25
asV1.3.1.10
p26
(lp27
Vear100y
p28
aVear120y
p29
aVear121y
p30
aVear140y
p31
aVear141y
p32
aVear160y
p33
aVear161y
p34
aVear180y
p35
aVear181y
p36
aVear40y
p37
aVear60y
p38
aVear80y
p39
aVegmeacpr
p40
aVepmeacpr
p41
asV1.3.1.12
p42
(lp43
Vppnd
p44
asV2.1.1.79
p45
(lp46
Vcfas160e
p47
aVcfas160g
p48
aVcfas180e
p49
aVcfas180g
p50
asV3.1.1.32
p51
(lp52
Vplipa1a120pp
p53
aVplipa1a140pp
p54
aVplipa1a141pp
p55
aVplipa1a160pp
p56
aVplipa1a161pp
p57
aVplipa1a180pp
p58
aVplipa1a181pp
p59
aVplipa1e120pp
p60
aVplipa1e140pp
p61
aVplipa1e141pp
p62
aVplipa1e160pp
p63
aVplipa1e161pp
p64
aVplipa1e180pp
p65
aVplipa1e181pp
p66
aVplipa1g120pp
p67
aVplipa1g140pp
p68
aVplipa1g141pp
p69
aVplipa1g160pp
p70
aVplipa1g161pp
p71
aVplipa1g180pp
p72
aVplipa1g181pp
p73
asV3.1.1.31
p74
(lp75
Vpgl
p76
asV3.2.2.14
p77
(lp78
Vnmnn
p79
aVnmnt7pp
p80
asV4.3.2.1
p81
(lp82
Vargsl
p83
asV4.3.2.2
p84
(lp85
Vadsl1r
p86
aVadsl2r
p87
asV3.2.2.10
p88
(lp89
Vcmpn
p90
asV2.6.1.69
p91
(lp92
Vsadh
p93
asV1.17.4.1
p94
(lp95
Vrndr1
p96
aVrndr2
p97
aVrndr3
p98
aVrndr4
p99
asV2.6.1.66
p100
(lp101
Vvpamtr
p102
asV3.1.4.46
p103
(lp104
Vgpdda1
p105
aVgpdda1pp
p106
aVgpdda2
p107
aVgpdda2pp
p108
aVgpdda3
p109
aVgpdda3pp
p110
aVgpdda4
p111
aVgpdda4pp
p112
aVgpdda5
p113
aVgpdda5pp
p114
asV2.6.1.62
p115
(lp116
Vamaotr
p117
asV1.16.3.1
p118
(lp119
Vferopp
p120
asV5.3.1.4
p121
(lp122
Varai
p123
asV2.8.1.2
p124
(lp125
Vmcpst
p126
asV2.8.1.1
p127
(lp128
Vcyanst
p129
aVcyanstpp
p130
asV2.8.1.6
p131
(lp132
Vbts5
p133
asV2.3.1.46
p134
(lp135
Vhsst
p136
asV2.3.1.47
p137
(lp138
Vaoxsr2
p139
asV3.6.3.14
p140
(lp141
Vatps4rpp
p142
asV4.2.1.24
p143
(lp144
Vppbngs
p145
asV2.3.1.40
p146
(lp147
V2agpeat120
p148
aV2agpeat140
p149
aV2agpeat141
p150
aV2agpeat160
p151
aV2agpeat161
p152
aV2agpeat180
p153
aV2agpeat181
p154
aV2agpgat120
p155
aV2agpgat140
p156
aV2agpgat141
p157
aV2agpgat160
p158
aV2agpgat161
p159
aV2agpgat180
p160
aV2agpgat181
p161
asV2.3.1.41
p162
(lp163
V3oas100
p164
aV3oas120
p165
aV3oas121
p166
aV3oas140
p167
aV3oas141
p168
aV3oas160
p169
aV3oas161
p170
aV3oas180
p171
aV3oas181
p172
aV3oas60
p173
aV3oas80
p174
aVkas14
p175
aVopmeacps
p176
asV5.1.1.1
p177
(lp178
Valar
p179
asV5.1.1.3
p180
(lp181
Vglur
p182
asV5.1.1.7
p183
(lp184
Vdape
p185
asV2.7.8.5
p186
(lp187
Vpgsa120
p188
aVpgsa140
p189
aVpgsa141
p190
aVpgsa160
p191
aVpgsa161
p192
aVpgsa180
p193
aVpgsa181
p194
asV2.7.8.7
p195
(lp196
Vacps1
p197
asV2.7.8.8
p198
(lp199
Vpssa120
p200
aVpssa140
p201
aVpssa141
p202
aVpssa160
p203
aVpssa161
p204
aVpssa180
p205
aVpssa181
p206
asV4.2.1.51
p207
(lp208
Vppndh
p209
asV1.8.1.7
p210
(lp211
Vgthor
p212
asV6.3.2.12
p213
(lp214
Vdhfs
p215
asV2.7.7.18
p216
(lp217
Vnnatr
p218
asV1.8.1.9
p219
(lp220
Vtrdr
p221
asV2.7.7.12
p222
(lp223
Vuglt
p224
asV2.4.1.1
p225
(lp226
Vglcp
p227
aVglcp2
p228
asV3.6.1.15
p229
(lp230
Vntp1
p231
aVntp10
p232
aVntp11
p233
aVntp12
p234
aVntp3
p235
aVntp3pp
p236
aVntp5
p237
aVtdp
p238
asV2.7.9.3
p239
(lp240
Vselnps
p241
asV1.4.1.13
p242
(lp243
Vglusy
p244
asV4.2.1.58
p245
(lp246
V3had40
p247
aV3had60
p248
aV3had80
p249
asV5.3.3.8
p250
(lp251
Vctecoai6
p252
aVctecoai7
p253
aVctecoai8
p254
asV5.3.3.2
p255
(lp256
Vipddi
p257
asV5.3.3.7
p258
(lp259
Vaconis
p260
asV3.5.3.9
p261
(lp262
Valltamh
p263
asV5.3.1.8
p264
(lp265
Vman6pi
p266
asV5.3.1.9
p267
(lp268
Vpgi
p269
asV2.6.1.9
p270
(lp271
Vhstpt
p272
asV2.6.1.5
p273
(lp274
Vtyrta
p275
asV5.3.1.1
p276
(lp277
Vtpi
p278
asV3.1.3.27
p279
(lp280
Vpgpp120
p281
aVpgpp120pp
p282
aVpgpp140
p283
aVpgpp140pp
p284
aVpgpp141
p285
aVpgpp141pp
p286
aVpgpp160
p287
aVpgpp160pp
p288
aVpgpp161
p289
aVpgpp161pp
p290
aVpgpp180
p291
aVpgpp180pp
p292
aVpgpp181
p293
aVpgpp181pp
p294
asV2.6.1.1
p295
(lp296
Vaspta
p297
asV2.6.1.2
p298
(lp299
Valata_l
p300
asV5.3.1.5
p301
(lp302
Vxyli1
p303
aVxyli2
p304
asV2.7.1.59
p305
(lp306
Vacgamk
p307
asV2.7.1.58
p308
(lp309
Vddgalk
p310
asV1.1.1.193
p311
(lp312
Vapraur
p313
asV2.7.1.56
p314
(lp315
Vfruk
p316
asV2.7.1.51
p317
(lp318
Vfclk
p319
asV2.7.1.50
p320
(lp321
Vhetzk
p322
asV2.7.1.53
p323
(lp324
Vxylk2
p325
asV6.2.1.26
p326
(lp327
Vsucbzl
p328
asV1.5.99.8
p329
(lp330
Vprod2
p331
asV1.1.1.58
p332
(lp333
Vtagurr
p334
asV2.7.1.45
p335
(lp336
Vddglk
p337
asV1.1.1.57
p338
(lp339
Vmanao
p340
asV1.2.7.1
p341
(lp342
Vpor5
p343
asV2.7.4.1
p344
(lp345
Vppk2r
p346
aVppkr
p347
asV2.7.7.27
p348
(lp349
Vglgc
p350
asV4.1.2.4
p351
(lp352
Vdrpa
p353
asV4.1.2.5
p354
(lp355
Vthra2i
p356
aVthrai
p357
asV2.7.1.20
p358
(lp359
Vadnk1
p360
asV2.7.1.21
p361
(lp362
Vtmdk1
p363
asV1.3.1.26
p364
(lp365
Vdhdpry
p366
asV2.7.1.24
p367
(lp368
Vdpcoak
p369
asV1.7.1.7
p370
(lp371
Vgmpr
p372
asV2.7.1.26
p373
(lp374
Vrbfk
p375
asV1.5.1.12
p376
(lp377
Vp5cd
p378
asV3.1.2.14
p379
(lp380
Vfa100acphi
p381
aVfa120acphi
p382
aVfa140acphi
p383
aVfa141acphi
p384
aVfa160acphi
p385
aVfa161acphi
p386
aVfa80acphi
p387
asV3.1.2.12
p388
(lp389
Vsfgthi
p390
asV2.7.4.8
p391
(lp392
Vdgk1
p393
aVgk1
p394
asV2.7.4.9
p395
(lp396
Vdtmpk
p397
asV2.7.4.6
p398
(lp399
Vndpk1
p400
aVndpk2
p401
aVndpk3
p402
aVndpk4
p403
aVndpk5
p404
aVndpk6
p405
aVndpk7
p406
aVndpk8
p407
asV2.7.4.7
p408
(lp409
Vpmpk
p410
asV3.2.2.16
p411
(lp412
Vmtan
p413
asV2.7.4.3
p414
(lp415
Vadk1
p416
asV1.4.1.4
p417
(lp418
Vgludy
p419
asV2.7.6.5
p420
(lp421
Vgtpdpk
p422
asV2.7.6.3
p423
(lp424
Vhppk2
p425
asV2.7.6.1
p426
(lp427
Vprpps
p428
asV2.6.1.16
p429
(lp430
Vgf6pta
p431
asV2.6.1.17
p432
(lp433
Vsdpta
p434
asV3.1.4.17
p435
(lp436
Vpde1
p437
aVpde4
p438
asV3.1.4.16
p439
(lp440
V23pde2pp
p441
aV23pde4pp
p442
aV23pde7pp
p443
aV23pde9pp
p444
asV2.6.1.11
p445
(lp446
Vacota
p447
asV2.6.1.19
p448
(lp449
Vabta
p450
asV1.14.12.17
p451
(lp452
Vnodox
p453
aVnodoy
p454
asV1.2.1.8
p455
(lp456
Vbetaldhx
p457
aVbetaldhy
p458
asV1.2.1.4
p459
(lp460
Valdd2y
p461
asV1.2.1.3
p462
(lp463
Valdd2x
p464
asV1.2.1.39
p465
(lp466
Valdd19xr
p467
asV4.2.1.19
p468
(lp469
Vigpdh
p470
asV3.2.1.108
p471
(lp472
Vlaczpp
p473
asV1.4.3.6
p474
(lp475
V42a12booxpp
p476
aVpeamnopp
p477
aVtyroxdapp
p478
asV1.4.3.5
p479
(lp480
Vpdx5poi
p481
aVpyam5po
p482
asV4.2.1.10
p483
(lp484
Vdhqti
p485
asV4.2.1.11
p486
(lp487
Veno
p488
asV4.2.1.12
p489
(lp490
Vedd
p491
asV4.2.1.17
p492
(lp493
Vecoah1
p494
aVecoah2
p495
aVecoah3
p496
aVecoah4
p497
aVecoah5
p498
aVecoah6
p499
aVecoah7
p500
aVecoah8
p501
asV3.1.2.6
p502
(lp503
Vglyox
p504
asV3.4.16.4
p505
(lp506
Vmddcp1pp
p507
aVmddcp2pp
p508
aVmddcp3pp
p509
aVmddcp4pp
p510
aVmddcp5pp
p511
asV2.1.1.107
p512
(lp513
Vupp3mt
p514
asV3.5.1.78
p515
(lp516
Vgspmda
p517
asV5.4.2.2
p518
(lp519
Vpgmt
p520
asV2.7.2.8
p521
(lp522
Vacgk
p523
asV2.7.2.2
p524
(lp525
Vcbmkr
p526
asV5.1.3.3
p527
(lp528
Vgalm2pp
p529
asV2.7.2.1
p530
(lp531
Vackr
p532
aVppakr
p533
asV4.2.1.61
p534
(lp535
V3had120
p536
aV3had121
p537
aV3had140
p538
aV3had141
p539
aV3had160
p540
aV3had161
p541
aV3had180
p542
aV3had181
p543
asV4.2.1.60
p544
(lp545
V3had100
p546
asV2.7.2.4
p547
(lp548
Vaspk
p549
asV1.13.11.16
p550
(lp551
Vhpppndo
p552
asV2.4.2.14
p553
(lp554
Vgluprt
p555
asV2.4.2.17
p556
(lp557
Vatpprt
p558
asV4.1.1.41
p559
(lp560
Vmmcd
p561
asV2.4.2.11
p562
(lp563
Vnamnpp
p564
asV4.1.1.47
p565
(lp566
Vglxcl
p567
asV3.5.4.19
p568
(lp569
Vprampc
p570
asV3.5.4.16
p571
(lp572
Vgtpci
p573
asV4.1.1.48
p574
(lp575
Vigps
p576
asV3.5.4.14
p577
(lp578
Vdcytd
p579
asV3.5.4.13
p580
(lp581
Vdctpd
p582
asV2.4.2.18
p583
(lp584
Vanprt
p585
asV3.5.4.10
p586
(lp587
Vimpc
p588
asV1.1.1.94
p589
(lp590
Vg3pd2
p591
asV1.1.1.95
p592
(lp593
Vpgcd
p594
asV1.3.99.2
p595
(lp596
Vacoad1f
p597
asV1.3.99.3
p598
(lp599
Vacoad2f
p600
aVacoad3f
p601
aVacoad4f
p602
aVacoad5f
p603
aVacoad6f
p604
aVacoad7f
p605
aVacoad8f
p606
asV1.3.99.1
p607
(lp608
Vfrd2
p609
aVfrd3
p610
aVsucdi
p611
asV2.3.1.129
p612
(lp613
Vuagaat
p614
asV2.1.3.3
p615
(lp616
Vocbt
p617
asV2.1.3.2
p618
(lp619
Vaspct
p620
asV2.1.3.5
p621
(lp622
Voxamtc
p623
asV2.7.1.60
p624
(lp625
Vamank
p626
asV3.2.1.86
p627
(lp628
Vab6pgh
p629
asV3.5.1.1
p630
(lp631
Vasnn
p632
aVasnnpp
p633
asV1.2.1.38
p634
(lp635
Vagpr
p636
asV2.6.1.52
p637
(lp638
Vohpbat
p639
aVpsert
p640
asV3.5.3.11
p641
(lp642
Vagmt
p643
asV2.3.1.157
p644
(lp645
Vg1pact
p646
asV2.6.1.58
p647
(lp648
Vpheta1
p649
asV3.5.3.19
p650
(lp651
Vuglych
p652
asV6.3.4.13
p653
(lp654
Vpragsr
p655
asV1.1.99.5
p656
(lp657
Vg3pd5
p658
aVg3pd6
p659
aVg3pd7
p660
asV1.1.99.1
p661
(lp662
Vchold
p663
asV1.1.1.133
p664
(lp665
Vtdpdrr
p666
asV4.1.3.12
p667
(lp668
Vipps
p669
asV3.6.1.19
p670
(lp671
Vntpp10
p672
aVntpp11
p673
aVntpp9
p674
asV6.3.1.8
p675
(lp676
Vgspmds
p677
asV4.2.1.52
p678
(lp679
Vdhdps
p680
asV6.3.2.13
p681
(lp682
Vuaagds
p683
asV6.3.1.5
p684
(lp685
Vnads1
p686
asV4.1.3.18
p687
(lp688
Vacls
p689
asV6.3.1.1
p690
(lp691
Vasns2
p692
asV4.2.1.59
p693
(lp694
Vogmeacpd
p695
aVopmeacpd
p696
asV3.6.1.13
p697
(lp698
Vadprdp
p699
asV6.3.1.2
p700
(lp701
Vglns
p702
asV6.1.1.1
p703
(lp704
Vtyrtrs
p705
asV6.3.3.3
p706
(lp707
Vdbts
p708
asV6.3.3.1
p709
(lp710
Vprais
p711
asV2.7.7.22
p712
(lp713
Vman1pt2
p714
asV2.7.7.23
p715
(lp716
Vuagdp
p717
asV6.3.5.3
p718
(lp719
Vprfgs
p720
asV6.3.5.2
p721
(lp722
Vgmps2
p723
asV6.3.5.5
p724
(lp725
Vcbps
p726
asV6.3.5.4
p727
(lp728
Vasns1
p729
asV2.7.7.24
p730
(lp731
Vg1ptt
p732
asV2.4.1.21
p733
(lp734
Vglcs1
p735
asV6.3.2.15
p736
(lp737
Vugmdds
p738
asV2.4.1.25
p739
(lp740
Vamalt1
p741
aVamalt2
p742
aVamalt3
p743
aVamalt4
p744
asV2.5.1.19
p745
(lp746
Vpscvt
p747
asV4.2.1.20
p748
(lp749
Vtrps1
p750
aVtrps2
p751
aVtrps3
p752
asV2.5.1.10
p753
(lp754
Vgrtt
p755
asV2.5.1.17
p756
(lp757
Vcbiat
p758
aVcblat
p759
asV2.5.1.16
p760
(lp761
Vapcs
p762
aVspms
p763
asV2.5.1.15
p764
(lp765
Vdhps2
p766
asV5.4.2.10
p767
(lp768
Vpgamt
p769
asV4.4.1.15
p770
(lp771
Vcysdds
p772
asV2.7.4.16
p773
(lp774
Vtmpk
p775
asV2.7.4.14
p776
(lp777
Vcytk1
p778
aVcytk2
p779
aVumpk
p780
asV2.7.4.11
p781
(lp782
Vdadk
p783
asV1.11.1.9
p784
(lp785
Vgthpi
p786
asV2.3.1.51
p787
(lp788
Vagpat120
p789
aVagpat140
p790
aVagpat141
p791
aVagpat160
p792
aVagpat161
p793
aVagpat180
p794
aVagpat181
p795
asV2.3.1.57
p796
(lp797
Vspmdat1
p798
aVspmdat2
p799
asV1.1.1.38
p800
(lp801
Vme1
p802
asV3.1.3.18
p803
(lp804
Vpglycp
p805
asV3.4.17.14
p806
(lp807
Valaalad
p808
asV3.4.17.13
p809
(lp810
Vmldcp1app
p811
aVmldcp1bpp
p812
aVmldcp2app
p813
aVmldcp2bpp
p814
aVmldcp3app
p815
asV1.1.1.35
p816
(lp817
Vhacd1
p818
aVhacd2
p819
aVhacd3
p820
aVhacd4
p821
aVhacd5
p822
aVhacd6
p823
aVhacd7
p824
aVhacd8
p825
asV3.1.3.10
p826
(lp827
Vacgal1pppp
p828
aVacgam1pppp
p829
aVg1pppp
p830
aVgal1pppp
p831
asV1.1.1.37
p832
(lp833
Vmdh
p834
asV1.11.1.6
p835
(lp836
Vcat
p837
asV4.1.1.19
p838
(lp839
Vargdc
p840
aVargdcpp
p841
asV4.1.1.18
p842
(lp843
Vlysdc
p844
asV2.9.1.1
p845
(lp846
Vselcyss
p847
asV5.4.2.1
p848
(lp849
Vpgm
p850
asV5.4.2.7
p851
(lp852
Vppm
p853
aVppm2
p854
asV4.1.1.11
p855
(lp856
Vasp1dc
p857
asV5.4.2.8
p858
(lp859
Vpmanm
p860
asV4.1.1.12
p861
(lp862
Vcyssads
p863
asV4.1.1.15
p864
(lp865
Vgludc
p866
asV4.1.1.17
p867
(lp868
Vorndc
p869
asV1.1.1.49
p870
(lp871
Vg6pdh2r
p872
asV1.1.1.44
p873
(lp874
Vgnd
p875
asV2.4.1.182
p876
(lp877
Vlpadss
p878
asV1.1.1.40
p879
(lp880
Vme2
p881
asV1.1.1.42
p882
(lp883
Vicdhyr
p884
asV1.1.2.3
p885
(lp886
Vl_lacd2
p887
aVl_lacd3
p888
asV2.7.2.3
p889
(lp890
Vpgk
p891
asV5.1.3.20
p892
(lp893
Vagmhe
p894
asV1.1.2.4
p895
(lp896
Vldh_d2
p897
asV2.3.1.117
p898
(lp899
Vthdps
p900
asV2.7.1.39
p901
(lp902
Vhsk
p903
asV3.5.99.6
p904
(lp905
Vg6pda
p906
asV2.7.1.33
p907
(lp908
Vpntk
p909
asV2.7.1.31
p910
(lp911
Vglyck
p912
aVglyck2
p913
asV2.7.1.30
p914
(lp915
Vglyk
p916
asV2.7.1.35
p917
(lp918
Vpydamk
p919
aVpydxk
p920
aVpydxnk
p921
asV3.1.3.15
p922
(lp923
Vhistp
p924
asV2.4.1.15
p925
(lp926
Vtre6ps
p927
asV4.1.2.25
p928
(lp929
Vdhnpa2r
p930
asV3.1.3.12
p931
(lp932
Vtre6pp
p933
asV4.1.2.21
p934
(lp935
Vddpgala
p936
asV4.1.2.20
p937
(lp938
Vglcral
p939
asV5.1.3.2
p940
(lp941
Vudpg4e
p942
asV3.2.2.4
p943
(lp944
Vampn
p945
asV4.3.1.8
p946
(lp947
Vhmbs
p948
asV4.3.1.7
p949
(lp950
Vethaal
p951
asV3.2.2.8
p952
(lp953
Vadnuc
p954
aVcytdh
p955
aVinsh
p956
aVurih
p957
aVxtsnh
p958
asV3.1.3.11
p959
(lp960
Vfbp
p961
asV4.3.1.1
p962
(lp963
Vaspt
p964
asV4.2.1.6
p965
(lp966
Vgalctnd
p967
asV5.1.3.1
p968
(lp969
Vrpe
p970
asV4.2.1.7
p971
(lp972
Valtrh
p973
asV4.3.1.17
p974
(lp975
Vserd_l
p976
asV5.1.3.4
p977
(lp978
Vrbp4e
p979
asV4.3.1.15
p980
(lp981
Vdapal
p982
asV6.3.2.6
p983
(lp984
Vprascsi
p985
asV4.3.1.19
p986
(lp987
Vthrd_l
p988
asV1.1.1.140
p989
(lp990
Vsbtpd
p991
asV6.3.2.5
p992
(lp993
Vppncl2
p994
asV1.2.1.41
p995
(lp996
Vg5sd
p997
asV2.4.2.9
p998
(lp999
Vupprt
p1000
asV2.4.2.8
p1001
(lp1002
Vguaprt
p1003
aVhxprt
p1004
asV3.6.1.26
p1005
(lp1006
Vcdappa120
p1007
aVcdappa140
p1008
aVcdappa141
p1009
aVcdappa160
p1010
aVcdappa161
p1011
aVcdappa180
p1012
aVcdappa181
p1013
asV3.6.1.27
p1014
(lp1015
Vudcpdp
p1016
aVudcpdppp
p1017
asV3.6.1.22
p1018
(lp1019
Vnaddp
p1020
asV3.6.1.23
p1021
(lp1022
Vdutpdp
p1023
asV2.4.2.1
p1024
(lp1025
Vpunp1
p1026
aVpunp2
p1027
aVpunp3
p1028
aVpunp4
p1029
aVpunp5
p1030
aVpunp6
p1031
aVpunp7
p1032
asV2.4.2.2
p1033
(lp1034
Vpynp2r
p1035
asV2.4.2.4
p1036
(lp1037
Vtmdpp
p1038
asV2.4.2.7
p1039
(lp1040
Vadpt
p1041
asV2.7.9.2
p1042
(lp1043
Vpps
p1044
asV4.2.1.32
p1045
(lp1046
Vtartd
p1047
asV2.3.1.15
p1048
(lp1049
Vg3pat120
p1050
aVg3pat140
p1051
aVg3pat141
p1052
aVg3pat160
p1053
aVg3pat161
p1054
aVg3pat180
p1055
aVg3pat181
p1056
asV2.3.1.16
p1057
(lp1058
Vacact2r
p1059
aVacact3r
p1060
aVacact4r
p1061
aVacact5r
p1062
aVacact6r
p1063
aVacact7r
p1064
aVacact8r
p1065
asV4.2.1.99
p1066
(lp1067
Vmicitdr
p1068
asV1.1.1.75
p1069
(lp1070
Vappldhr
p1071
asV1.1.1.77
p1072
(lp1073
Vlcarr
p1074
aVlcars
p1075
asV2.3.1.8
p1076
(lp1077
Vptar
p1078
asV1.6.99.6
p1079
(lp1080
Vnadphqr2
p1081
aVnadphqr3
p1082
aVnadphqr4
p1083
asV2.5.1.7
p1084
(lp1085
Vuagcvt
p1086
asV2.5.1.6
p1087
(lp1088
Vmetat
p1089
asV2.5.1.3
p1090
(lp1091
Vtmppp
p1092
asV2.5.1.1
p1093
(lp1094
Vdmatt
p1095
asV2.5.1.9
p1096
(lp1097
Vrbfsa
p1098
aVrbfsb
p1099
asV3.5.4.26
p1100
(lp1101
Vdhppda2
p1102
asV4.1.1.50
p1103
(lp1104
Vadmdc
p1105
asV1.1.1.83
p1106
(lp1107
Vmalddh
p1108
asV1.1.1.85
p1109
(lp1110
Vipmd
p1111
asV1.1.1.86
p1112
(lp1113
Vkara1
p1114
aVkara2
p1115
asV2.7.1.5
p1116
(lp1117
Vrmk
p1118
asV2.3.1.1
p1119
(lp1120
Vacgs
p1121
asV2.7.1.7
p1122
(lp1123
Vhex4
p1124
asV2.7.1.6
p1125
(lp1126
Vgalkr
p1127
asV2.7.1.1
p1128
(lp1129
Vhex1
p1130
aVhex7
p1131
asV5.4.99.9
p1132
(lp1133
Vudpgalm
p1134
asV5.4.99.6
p1135
(lp1136
Vichors_copy1
p1137
asV5.4.99.5
p1138
(lp1139
Vchorm
p1140
asV5.4.99.2
p1141
(lp1142
Vmmm
p1143
asV2.7.1.107
p1144
(lp1145
Vdagk120
p1146
aVdagk140
p1147
aVdagk141
p1148
aVdagk160
p1149
aVdagk161
p1150
aVdagk180
p1151
aVdagk181
p1152
asV2.4.2.22
p1153
(lp1154
Vxppt
p1155
asV6.2.1.30
p1156
(lp1157
Vpaccoal
p1158
asV2.7.1.73
p1159
(lp1160
Vinsk
p1161
asV2.7.1.71
p1162
(lp1163
Vshkk
p1164
asV4.1.1.20
p1165
(lp1166
Vdapdc
p1167
asV3.2.1.93
p1168
(lp1169
Vtre6ph
p1170
asV4.1.1.23
p1171
(lp1172
Vompdc
p1173
asV2.1.1.13
p1174
(lp1175
Vmets
p1176
asV2.1.1.10
p1177
(lp1178
Vhcysmt
p1179
asV5.1.3.14
p1180
(lp1181
Vuag2e
p1182
asV2.7.2.11
p1183
(lp1184
Vglu5k
p1185
asV5.1.3.13
p1186
(lp1187
Vtdpdre
p1188
asV5.3.1.25
p1189
(lp1190
Vfci
p1191
asV5.3.1.24
p1192
(lp1193
Vpraii
p1194
asV4.1.1.8
p1195
(lp1196
Voxcdc
p1197
asV5.3.1.22
p1198
(lp1199
Vhpyri
p1200
asV4.1.1.3
p1201
(lp1202
Voaadc
p1203
asV2.4.2.10
p1204
(lp1205
Vorpt
p1206
asV1.1.1.103
p1207
(lp1208
Vthrd
p1209
asV4.1.3.6
p1210
(lp1211
Vcitl
p1212
asV1.1.1.100
p1213
(lp1214
V3oar100
p1215
aV3oar120
p1216
aV3oar121
p1217
aV3oar140
p1218
aV3oar141
p1219
aV3oar160
p1220
aV3oar161
p1221
aV3oar180
p1222
aV3oar181
p1223
aV3oar40
p1224
aV3oar60
p1225
aV3oar80
p1226
aVogmeacpr
p1227
aVopmeacpr
p1228
asV4.1.3.3
p1229
(lp1230
Vacnml
p1231
asV4.1.3.2
p1232
(lp1233
Vmals
p1234
asV4.1.3.1
p1235
(lp1236
Vicl
p1237
asV3.5.2.5
p1238
(lp1239
Valltn
p1240
asV3.5.2.3
p1241
(lp1242
Vdhorts
p1243
asV1.5.1.30
p1244
(lp1245
Vflvr
p1246
aVflvrx
p1247
asV3.5.1.25
p1248
(lp1249
Vagdc
p1250
asV4.1.3.27
p1251
(lp1252
Vans
p1253
asV4.1.1.49
p1254
(lp1255
Vppck
p1256
asV4.2.1.42
p1257
(lp1258
Vgalctd
p1259
asV4.2.1.40
p1260
(lp1261
Vglcrd
p1262
asV2.4.2.19
p1263
(lp1264
Vnndpr
p1265
asV2.6.1.42
p1266
(lp1267
Vileta
p1268
aVleutai
p1269
aVvalta
p1270
asV4.1.2.14
p1271
(lp1272
Veda
p1273
asV4.1.2.15
p1274
(lp1275
Vddpa
p1276
asV4.1.2.16
p1277
(lp1278
Vkdops
p1279
asV4.1.2.17
p1280
(lp1281
Vfclpa
p1282
asV4.1.2.13
p1283
(lp1284
Vfba
p1285
aVfba3
p1286
asV2.7.7.3
p1287
(lp1288
Vptpati
p1289
asV2.7.7.2
p1290
(lp1291
Vfmnat
p1292
asV2.7.7.1
p1293
(lp1294
Vnmnat
p1295
asV4.1.2.19
p1296
(lp1297
Vrmpa
p1298
asV2.3.1.118
p1299
(lp1300
Vacanthat
p1301
asV2.6.1.33
p1302
(lp1303
Vtdpagta
p1304
asV2.7.7.38
p1305
(lp1306
Vkdoct2
p1307
asV1.1.1.215
p1308
(lp1309
V2dgulrgy
p1310
asV1.3.3.4
p1311
(lp1312
Vpppgo
p1313
aVpppgo3
p1314
asV1.3.3.1
p1315
(lp1316
Vdhord2
p1317
aVdhord5
p1318
asV1.3.3.3
p1319
(lp1320
Vcpppgo
p1321
asV1.2.1.12
p1322
(lp1323
Vgapd
p1324
asV1.2.1.11
p1325
(lp1326
Vasad
p1327
asV1.2.1.10
p1328
(lp1329
Vacald
p1330
asV1.2.1.16
p1331
(lp1332
Vssaly
p1333
asV4.2.99.9
p1334
(lp1335
Vshsl1
p1336
asV1.5.3.2
p1337
(lp1338
Vmtrpox
p1339
asV1.2.1.19
p1340
(lp1341
Vabutd
p1342
asV1.5.3.1
p1343
(lp1344
Vsarcox
p1345
asV1.18.99.1
p1346
(lp1347
Vhyd1pp
p1348
aVhyd2pp
p1349
aVhyd3pp
p1350
asV2.2.1.1
p1351
(lp1352
Vtkt1
p1353
aVtkt2
p1354
asV2.2.1.2
p1355
(lp1356
Vtala
p1357
asV1.8.2.2
p1358
(lp1359
Vsulri
p1360
asV2.7.7.41
p1361
(lp1362
Vdasyn120
p1363
aVdasyn140
p1364
aVdasyn141
p1365
aVdasyn160
p1366
aVdasyn161
p1367
aVdasyn180
p1368
aVdasyn181
p1369
asV1.8.4.8
p1370
(lp1371
Vpapsr
p1372
aVpapsr2
p1373
asV2.3.1.29
p1374
(lp1375
Vglyat
p1376
asV1.1.99.16
p1377
(lp1378
Vmdh2
p1379
aVmdh3
p1380
asV1.8.4.5
p1381
(lp1382
Vmetsoxr1
p1383
asV1.8.4.2
p1384
(lp1385
Vgrxr
p1386
asV1.1.1.28
p1387
(lp1388
Vldh_d
p1389
asV1.1.1.23
p1390
(lp1391
Vhistd
p1392
asV1.1.1.22
p1393
(lp1394
Vudpgd
p1395
asV1.1.1.21
p1396
(lp1397
Vlaldo2x
p1398
aVlaldo3
p1399
asV1.1.1.26
p1400
(lp1401
Vglycltdy
p1402
asV1.1.1.25
p1403
(lp1404
Vshk3dr
p1405
asV2.7.8.13
p1406
(lp1407
Vpappt3
p1408
asV1.4.99.1
p1409
(lp1410
Vdaad
p1411
asV3.5.4.3
p1412
(lp1413
Vguad
p1414
asV3.5.4.2
p1415
(lp1416
Vadd
p1417
asV3.5.4.1
p1418
(lp1419
Vcsnd
p1420
asV1.6.5.3
p1421
(lp1422
Vnadh10
p1423
aVnadh16pp
p1424
aVnadh17pp
p1425
aVnadh18pp
p1426
aVnadh5
p1427
aVnadh9
p1428
asV3.5.4.5
p1429
(lp1430
Vcytd
p1431
asV3.5.4.4
p1432
(lp1433
Vada
p1434
asV6.1.1.12
p1435
(lp1436
Vasptrs
p1437
asV6.1.1.11
p1438
(lp1439
Vsertrs
p1440
aVsertrs2
p1441
asV6.1.1.10
p1442
(lp1443
Vmettrs
p1444
asV6.1.1.17
p1445
(lp1446
Vglutrs
p1447
asV6.1.1.16
p1448
(lp1449
Vcystrs
p1450
asV6.1.1.15
p1451
(lp1452
Vprotrs
p1453
asV6.1.1.14
p1454
(lp1455
Vglytrs
p1456
asV4.1.1.65
p1457
(lp1458
Vpsd120
p1459
aVpsd140
p1460
aVpsd141
p1461
aVpsd160
p1462
aVpsd161
p1463
aVpsd180
p1464
aVpsd181
p1465
asV6.1.1.19
p1466
(lp1467
Vargtrs
p1468
asV6.1.1.18
p1469
(lp1470
Vglntrs
p1471
asV2.3.1.79
p1472
(lp1473
Vglcatr
p1474
aVmaltatr
p1475
asV6.1.1.9
p1476
(lp1477
Vvaltrs
p1478
asV2.3.1.109
p1479
(lp1480
Vast
p1481
asV6.1.1.7
p1482
(lp1483
Valatrs
p1484
asV6.1.1.6
p1485
(lp1486
Vlystrs
p1487
asV6.1.1.5
p1488
(lp1489
Viletrs
p1490
asV6.1.1.4
p1491
(lp1492
Vleutrs
p1493
asV6.1.1.3
p1494
(lp1495
Vthrtrs
p1496
asV6.1.1.2
p1497
(lp1498
Vtrptrs
p1499
asV3.5.4.9
p1500
(lp1501
Vmthfc
p1502
asV2.3.1.9
p1503
(lp1504
Vacact1r
p1505
asV1.5.1.2
p1506
(lp1507
Vp5cr
p1508
asV1.5.1.3
p1509
(lp1510
Vdhfr
p1511
asV1.5.1.5
p1512
(lp1513
Vmthfd
p1514
asV6.4.1.2
p1515
(lp1516
Vaccoac
p1517
asV4.2.1.47
p1518
(lp1519
Vgmand
p1520
asV4.2.1.46
p1521
(lp1522
Vtdpgdh
p1523
asV1.6.1.1
p1524
(lp1525
Vthd2pp
p1526
asV3.1.3.3
p1527
(lp1528
Vpsp_l
p1529
asV5.3.1.14
p1530
(lp1531
Vrmi
p1532
asV5.3.1.16
p1533
(lp1534
Vprmici
p1535
asV2.7.1.23
p1536
(lp1537
Vnadk
p1538
asV5.3.1.12
p1539
(lp1540
Vgui1
p1541
aVgui2
p1542
asV5.3.1.13
p1543
(lp1544
Va5piso
p1545
asV1.2.2.1
p1546
(lp1547
Vfdh4pp
p1548
aVfdh5pp
p1549
asV1.2.2.2
p1550
(lp1551
Vpox
p1552
asV1.1.1.154
p1553
(lp1554
Vurdglycd
p1555
asV1.1.1.158
p1556
(lp1557
Vuapgr
p1558
asV3.1.5.1
p1559
(lp1560
Vntptp1
p1561
aVntptp2
p1562
asV3.5.1.18
p1563
(lp1564
Vsdpds
p1565
asV3.5.1.19
p1566
(lp1567
Vnnam
p1568
asV5.3.1.6
p1569
(lp1570
Vrpi
p1571
asV3.5.1.16
p1572
(lp1573
Vacoda
p1574
asV3.5.1.10
p1575
(lp1576
Vfthfd
p1577
asV4.2.1.33
p1578
(lp1579
Vippmia
p1580
aVippmib
p1581
asV3.4.11.2
p1582
(lp1583
Vamptasecg
p1584
aVamptasepg
p1585
asV3.1.3.4
p1586
(lp1587
Vpapa120
p1588
aVpapa120pp
p1589
aVpapa140
p1590
aVpapa140pp
p1591
aVpapa141
p1592
aVpapa141pp
p1593
aVpapa160
p1594
aVpapa160pp
p1595
aVpapa161
p1596
aVpapa161pp
p1597
aVpapa180
p1598
aVpapa180pp
p1599
aVpapa181
p1600
aVpapa181pp
p1601
asV3.1.3.5
p1602
(lp1603
Vntd1
p1604
aVntd10
p1605
aVntd10pp
p1606
aVntd11
p1607
aVntd11pp
p1608
aVntd12
p1609
aVntd12pp
p1610
aVntd1pp
p1611
aVntd2
p1612
aVntd2pp
p1613
aVntd3
p1614
aVntd3pp
p1615
aVntd4
p1616
aVntd4pp
p1617
aVntd5
p1618
aVntd5pp
p1619
aVntd6
p1620
aVntd6pp
p1621
aVntd7
p1622
aVntd7pp
p1623
aVntd8
p1624
aVntd8pp
p1625
aVntd9
p1626
aVntd9pp
p1627
asV3.3.2.1
p1628
(lp1629
Vichort
p1630
asV3.1.3.7
p1631
(lp1632
Vbpnt
p1633
asV3.1.3.25
p1634
(lp1635
Vmi1pp
p1636
asV3.6.1.31
p1637
(lp1638
Vpratpp
p1639
asV2.7.1.25
p1640
(lp1641
Vadsk
p1642
asV4.1.2.40
p1643
(lp1644
Vtgbpa
p1645
asV3.1.3.9
p1646
(lp1647
Vg6pp
p1648
asV3.6.1.1
p1649
(lp1650
Vppa
p1651
aVppa2
p1652
asV3.6.1.7
p1653
(lp1654
Vaph120
p1655
aVaph140
p1656
aVaph141
p1657
aVaph160
p1658
aVaph161
p1659
aVaph180
p1660
aVaph181
p1661
asV2.7.7.9
p1662
(lp1663
Vgalui
p1664
asV4.2.1.81
p1665
(lp1666
Vdtartd
p1667
asV4.2.1.80
p1668
(lp1669
Vop4enh
p1670
asV4.2.1.75
p1671
(lp1672
Vupp3s
p1673
asV4.1.99.1
p1674
(lp1675
Vcysds
p1676
aVtrpas2
p1677
asV4.4.1.8
p1678
(lp1679
Vcystl
p1680
asV3.1.1.4
p1681
(lp1682
Vplipa2a120pp
p1683
aVplipa2a140pp
p1684
aVplipa2a141pp
p1685
aVplipa2a160pp
p1686
aVplipa2a161pp
p1687
aVplipa2a180pp
p1688
aVplipa2a181pp
p1689
aVplipa2e120pp
p1690
aVplipa2e140pp
p1691
aVplipa2e141pp
p1692
aVplipa2e160pp
p1693
aVplipa2e161pp
p1694
aVplipa2e180pp
p1695
aVplipa2e181pp
p1696
aVplipa2g120pp
p1697
aVplipa2g140pp
p1698
aVplipa2g141pp
p1699
aVplipa2g160pp
p1700
aVplipa2g161pp
p1701
aVplipa2g180pp
p1702
aVplipa2g181pp
p1703
asV3.1.1.5
p1704
(lp1705
Vlplipal1a120pp
p1706
aVlplipal1a140pp
p1707
aVlplipal1a141pp
p1708
aVlplipal1a160pp
p1709
aVlplipal1a161pp
p1710
aVlplipal1a180pp
p1711
aVlplipal1a181pp
p1712
aVlplipal1e120pp
p1713
aVlplipal1e140pp
p1714
aVlplipal1e141pp
p1715
aVlplipal1e160pp
p1716
aVlplipal1e161pp
p1717
aVlplipal1e180pp
p1718
aVlplipal1e181pp
p1719
aVlplipal1g120pp
p1720
aVlplipal1g140pp
p1721
aVlplipal1g141pp
p1722
aVlplipal1g160pp
p1723
aVlplipal1g161pp
p1724
aVlplipal1g180pp
p1725
aVlplipal1g181pp
p1726
aVlplipal2a120
p1727
aVlplipal2a140
p1728
aVlplipal2a141
p1729
aVlplipal2a160
p1730
aVlplipal2a161
p1731
aVlplipal2a180
p1732
aVlplipal2a181
p1733
aVlplipal2e120
p1734
aVlplipal2e140
p1735
aVlplipal2e141
p1736
aVlplipal2e160
p1737
aVlplipal2e161
p1738
aVlplipal2e180
p1739
aVlplipal2e181
p1740
aVlplipal2g120
p1741
aVlplipal2g140
p1742
aVlplipal2g141
p1743
aVlplipal2g160
p1744
aVlplipal2g161
p1745
aVlplipal2g180
p1746
aVlplipal2g181
p1747
asV1.1.1.60
p1748
(lp1749
Vtrsarr
p1750
asV4.4.1.5
p1751
(lp1752
Vlgthl
p1753
asV1.1.1.69
p1754
(lp1755
V5dglcnr
p1756
asV3.2.2.5
p1757
(lp1758
Vnadn
p1759
asV6.2.1.13
p1760
(lp1761
Vaccoal
p1762
asV2.4.1.18
p1763
(lp1764
Vglbran2
p1765
asV3.1.7.2
p1766
(lp1767
Vgdptpdp
p1768
aVppgppdp
p1769
asV1.3.1.1
p1770
(lp1771
Vduradx
p1772
asV1.3.1.9
p1773
(lp1774
Vear100x
p1775
aVear120x
p1776
aVear121x
p1777
aVear140x
p1778
aVear141x
p1779
aVear160x
p1780
aVear161x
p1781
aVear180x
p1782
aVear181x
p1783
aVear40x
p1784
aVear60x
p1785
aVear80x
p1786
asV2.7.1.130
p1787
(lp1788
Vtdsk
p1789
asV3.5.1.2
p1790
(lp1791
Vglun
p1792
aVglunpp
p1793
asV2.7.1.48
p1794
(lp1795
Vurik2
p1796
asV2.7.1.49
p1797
(lp1798
Vhmpk1
p1799
asV2.1.2.9
p1800
(lp1801
Vfmettrs
p1802
asV2.7.1.40
p1803
(lp1804
Vpyk
p1805
asV6.2.1.20
p1806
(lp1807
Vaacps1
p1808
aVaacps2
p1809
aVaacps3
p1810
aVaacps4
p1811
aVaacps5
p1812
aVaacps6
p1813
aVaacps7
p1814
aVaacps8
p1815
aVaacps9
p1816
asV2.1.2.1
p1817
(lp1818
Vghmt2r
p1819
asV2.1.2.2
p1820
(lp1821
Vgarft
p1822
asV2.1.2.3
p1823
(lp1824
Vaicart
p1825
asV6.2.1.5
p1826
(lp1827
Vsucoas
p1828
asV6.2.1.1
p1829
(lp1830
Vacs
p1831
asV6.2.1.3
p1832
(lp1833
Vfacoal100t2pp
p1834
aVfacoal120t2pp
p1835
aVfacoal140t2pp
p1836
aVfacoal141t2pp
p1837
aVfacoal160t2pp
p1838
aVfacoal161t2pp
p1839
aVfacoal180t2pp
p1840
aVfacoal181t2pp
p1841
aVfacoal60t2pp
p1842
aVfacoal80t2pp
p1843
asV1.3.1.28
p1844
(lp1845
Vdhbd
p1846
asV4.1.1.31
p1847
(lp1848
Vppc
p1849
asV4.1.1.37
p1850
(lp1851
Vuppdc1
p1852
asV4.1.1.36
p1853
(lp1854
Vppcdc
p1855
asV3.1.3.45
p1856
(lp1857
Vkdopp
p1858
asV2.8.3.8
p1859
(lp1860
Vbutct
p1861
aVhxct
p1862
asV4.6.1.2
p1863
(lp1864
Vguacyc
p1865
asV4.6.1.1
p1866
(lp1867
Vadncyc
p1868
asV5.4.3.8
p1869
(lp1870
Vg1sat
p1871
asV3.2.2.9
p1872
(lp1873
Vahcysns
p1874
asV2.1.2.10
p1875
(lp1876
Vfometri
p1877
aVthfat
p1878
asV2.1.2.11
p1879
(lp1880
Vmohmt
p1881
asV1.14.11.17
p1882
(lp1883
Vtaudo
p1884
asV1.5.1.20
p1885
(lp1886
Vmthfr2
p1887
asV6.3.2.2
p1888
(lp1889
Vglucys
p1890
asV6.3.2.3
p1891
(lp1892
Vgths
p1893
asV6.3.2.1
p1894
(lp1895
Vpants
p1896
asV4.2.1.2
p1897
(lp1898
Vfum
p1899
asV4.2.1.3
p1900
(lp1901
Vaconta
p1902
aVacontb
p1903
asV6.3.2.4
p1904
(lp1905
Valaalar
p1906
asV4.2.1.1
p1907
(lp1908
Vhco3e
p1909
asV6.3.2.8
p1910
(lp1911
Vuamas
p1912
asV6.3.2.9
p1913
(lp1914
Vuamags
p1915
asV4.2.1.8
p1916
(lp1917
Vmnnh
p1918
asV4.2.1.9
p1919
(lp1920
Vdhad1
p1921
asV6.3.4.4
p1922
(lp1923
Vadss
p1924
asV6.3.4.5
p1925
(lp1926
Vargss
p1927
asV1.7.3.3
p1928
(lp1929
Vuric
p1930
asV6.1.1.20
p1931
(lp1932
Vphetrs
p1933
asV6.3.4.2
p1934
(lp1935
Vctps2
p1936
asV6.3.4.3
p1937
(lp1938
Vfthfli
p1939
asV4.99.1.1
p1940
(lp1941
Vfclt
p1942
asV2.6.1.29
p1943
(lp1944
Vptrcta
p1945
asV4.2.3.3
p1946
(lp1947
Vmgsa
p1948
asV1.1.1.169
p1949
(lp1950
Vdpr
p1951
asV1.1.1.204
p1952
(lp1953
Vxand
p1954
asV1.1.1.205
p1955
(lp1956
Vimpd
p1957
asV3.5.1.42
p1958
(lp1959
Vnmnda
p1960
asV1.2.1.24
p1961
(lp1962
Vssalx
p1963
asV1.2.1.21
p1964
(lp1965
Vgcaldd
p1966
aVlcadi
p1967
asV3.6.1.45
p1968
(lp1969
Vuacgalppp
p1970
aVuacgamppp
p1971
aVudpgalppp
p1972
aVudpgppp
p1973
aVuglcurppp
p1974
asV3.6.1.40
p1975
(lp1976
Vgtpdpdp
p1977
asV3.6.1.41
p1978
(lp1979
Vap4ah
p1980
asV2.1.1.45
p1981
(lp1982
Vtmds
p1983
asV4.2.1.79
p1984
(lp1985
Vmcitd
p1986
asV2.3.1.39
p1987
(lp1988
Vmcoata
p1989
asV2.3.1.38
p1990
(lp1991
Vacoata
p1992
asV4.1.3.31
p1993
(lp1994
Vmcits
p1995
asV4.1.3.30
p1996
(lp1997
Vmcitl2
p1998
asV2.7.7.58
p1999
(lp2000
Vdhbs
p2001
asV2.3.1.30
p2002
(lp2003
Vserat
p2004
asV1.1.1.17
p2005
(lp2006
Vm1pd
p2007
asV1.1.1.6
p2008
(lp2009
Vglycdx
p2010
asV1.1.1.1
p2011
(lp2012
Valcd19
p2013
aValcd2x
p2014
asV1.1.1.3
p2015
(lp2016
Vhsdy
p2017
asV2.7.1.89
p2018
(lp2019
Vtmk
p2020
asV4.2.3.4
p2021
(lp2022
Vdhqs
p2023
asV4.2.3.5
p2024
(lp2025
Vchors
p2026
asV3.2.1.22
p2027
(lp2028
Vgals3
p2029
asV3.2.1.23
p2030
(lp2031
Vlacz
p2032
asV6.1.1.22
p2033
(lp2034
Vasntrs
p2035
asV4.2.3.1
p2036
(lp2037
Vthrs
p2038
asV3.2.1.26
p2039
(lp2040
Vffsd
p2041
asV6.1.1.21
p2042
(lp2043
Vhistrs
p2044
asV3.2.1.28
p2045
(lp2046
Vtreh
p2047
aVtrehpp
p2048
asV1.15.1.1
p2049
(lp2050
Vspodm
p2051
aVspodmpp
p2052
as.